; Function Attrs: nounwind sspstrong uwtable
define internal range(i64 1, 0) i64 @iseqw_first_lineno(i64 noundef %0) #0 {
  %2 = tail call ptr @rb_check_typeddata(i64 noundef %0, ptr noundef nonnull @iseqw_data_type) #20
  %3 = load ptr, ptr %2, align 8, !tbaa !244
  %4 = getelementptr inbounds nuw i8, ptr %3, i64 16
  %5 = load ptr, ptr %4, align 8, !tbaa !7
  %.not.i = icmp eq ptr %5, null
  br i1 %.not.i, label %6, label %7

6:                                                ; preds = %1
  tail call void @rb_ibf_load_iseq_complete(ptr noundef nonnull %3) #20
  %.pre.i = load ptr, ptr %4, align 8, !tbaa !7
  br label %7

7:                                                ; preds = %6, %1
  %8 = phi ptr [ %.pre.i, %6 ], [ %5, %1 ]
  %9 = getelementptr inbounds nuw i8, ptr %8, i64 80
  %10 = load i64, ptr %9, align 8, !tbaa !232
  %.not5.i = icmp eq i64 %10, 0
  br i1 %.not5.i, label %11, label %iseqw_check.exit

11:                                               ; preds = %7
  %12 = load i64, ptr @rb_eTypeError, align 8, !tbaa !42
  tail call void (i64, ptr, ...) @rb_raise(i64 noundef %12, ptr noundef nonnull @.str.158) #21
  unreachable

iseqw_check.exit:                                 ; preds = %7
  %13 = getelementptr inbounds nuw i8, ptr %8, i64 88
  %14 = load i32, ptr %13, align 8, !tbaa !251
  %15 = sext i32 %14 to i64
  %16 = shl nsw i64 %15, 1
  %17 = or disjoint i64 %16, 1
  ret i64 %17
}